target datalayout = "e-m:e-p270:32:32-p271:32:32-p272:64:64-i64:64-i128:128-f80:128-n8:16:32:64-S128"
target triple = "x86_64-pc-linux-gnu"

%"class.cv::dnn::GLogWrapper" = type { ptr, ptr, ptr, ptr, i32, i8, i8, %"class.std::__cxx11::basic_stringstream" }
%"class.std::__cxx11::basic_stringstream" = type { %"class.std::basic_iostream.base", %"class.std::__cxx11::basic_stringbuf", %"class.std::basic_ios" }
%"class.std::basic_iostream.base" = type { %"class.std::basic_istream.base", %"class.std::basic_ostream.base" }
%"class.std::basic_istream.base" = type { ptr, i64 }
%"class.std::basic_ostream.base" = type { ptr }
%"class.std::__cxx11::basic_stringbuf" = type { %"class.std::basic_streambuf", i32, %"class.std::__cxx11::basic_string" }
%"class.std::basic_streambuf" = type { ptr, ptr, ptr, ptr, ptr, ptr, ptr, %"class.std::locale" }
%"class.std::locale" = type { ptr }
%"class.std::__cxx11::basic_string" = type { %"struct.std::__cxx11::basic_string<char>::_Alloc_hider", i64, %union.anon }
%"struct.std::__cxx11::basic_string<char>::_Alloc_hider" = type { ptr }
%union.anon = type { i64, [8 x i8] }
%"class.std::basic_ios" = type { %"class.std::ios_base", ptr, i8, i8, ptr, ptr, ptr, ptr }
%"class.std::ios_base" = type { ptr, i64, i64, i32, i32, i32, ptr, %"struct.std::ios_base::_Words", [8 x %"struct.std::ios_base::_Words"], i32, ptr, %"class.std::locale" }
%"struct.std::ios_base::_Words" = type { ptr, i64 }

@.str = private unnamed_addr constant [128 x i8] c"generated/home/dtcxzyw/WorkSpace/Projects/compilers/llvm-opt-benchmark/bench/opencv/opencv/modules/dnn/src/tensorflow/tf_io.cpp\00", align 1
@.str.1 = private unnamed_addr constant [6 x i8] c"CHECK\00", align 1
@.str.3 = private unnamed_addr constant [32 x i8] c"Failed to parse GraphDef file: \00", align 1
@__func__._ZN2cv3dnn32ReadTFNetParamsFromTextFileOrDieEPKcPN17opencv_tensorflow8GraphDefE = private unnamed_addr constant [33 x i8] c"ReadTFNetParamsFromTextFileOrDie\00", align 1
@.str.6 = private unnamed_addr constant [41 x i8] c"ReadProtoFromTextFile(param_file, param)\00", align 1

; Function Attrs: inlinehint mustprogress nounwind uwtable
define linkonce_odr noundef i32 @_ZStorSt12_Ios_IostateS_(i32 noundef %0, i32 noundef %1) #8 comdat {
  %3 = alloca i32, align 4
  %4 = alloca i32, align 4
  store i32 %0, ptr %3, align 4, !tbaa !114
  store i32 %1, ptr %4, align 4, !tbaa !114
  %5 = load i32, ptr %3, align 4, !tbaa !114
  %6 = load i32, ptr %4, align 4, !tbaa !114
  %7 = or i32 %5, %6
  ret i32 %7
}

; Function Attrs: mustprogress nounwind uwtable
define available_externally noundef i32 @_ZNKSt9basic_iosIcSt11char_traitsIcEE7rdstateEv(ptr noundef nonnull align 8 dereferenceable(264) %0) #6 align 2 {
  %2 = alloca ptr, align 8
  store ptr %0, ptr %2, align 8, !tbaa !50
  %3 = load ptr, ptr %2, align 8
  %4 = getelementptr inbounds nuw %"class.std::ios_base", ptr %3, i32 0, i32 5
  %5 = load i32, ptr %4, align 8, !tbaa !115
  ret i32 %5
}

; Function Attrs: mustprogress nounwind uwtable
define linkonce_odr hidden noundef i64 @_ZNSt11char_traitsIcE6lengthEPKc(ptr noundef %0) #6 comdat align 2 {
  %2 = alloca ptr, align 8
  store ptr %0, ptr %2, align 8, !tbaa !3
  %3 = load ptr, ptr %2, align 8, !tbaa !3
  %4 = call i64 @strlen(ptr noundef %3) #3
  ret i64 %4
}

; Function Attrs: mustprogress uwtable
define available_externally void @_ZNSt9basic_iosIcSt11char_traitsIcEE8setstateESt12_Ios_Iostate(ptr noundef nonnull align 8 dereferenceable(264) %0, i32 noundef %1) #4 align 2 {
  %3 = alloca ptr, align 8
  %4 = alloca i32, align 4
  store ptr %0, ptr %3, align 8, !tbaa !50
  store i32 %1, ptr %4, align 4, !tbaa !114
  %5 = load ptr, ptr %3, align 8
  %6 = call noundef i32 @_ZNKSt9basic_iosIcSt11char_traitsIcEE7rdstateEv(ptr noundef nonnull align 8 dereferenceable(264) %5)
  %7 = load i32, ptr %4, align 4, !tbaa !114
  %8 = call noundef i32 @_ZStorSt12_Ios_IostateS_(i32 noundef %6, i32 noundef %7)
  call void @_ZNSt9basic_iosIcSt11char_traitsIcEE5clearESt12_Ios_Iostate(ptr noundef nonnull align 8 dereferenceable(264) %5, i32 noundef %8)
  ret void
}

; Function Attrs: inlinehint mustprogress uwtable
define available_externally noundef nonnull align 8 dereferenceable(8) ptr @_ZStlsISt11char_traitsIcEERSt13basic_ostreamIcT_ES5_PKc(ptr noundef nonnull align 8 dereferenceable(8) %0, ptr noundef %1) #7 {
  %3 = alloca ptr, align 8
  %4 = alloca ptr, align 8
  store ptr %0, ptr %3, align 8, !tbaa !40
  store ptr %1, ptr %4, align 8, !tbaa !3
  %5 = load ptr, ptr %4, align 8, !tbaa !3
  %6 = icmp ne ptr %5, null
  br i1 %6, label %13, label %7

7:                                                ; preds = %2
  %8 = load ptr, ptr %3, align 8, !tbaa !40
  %9 = load ptr, ptr %8, align 8, !tbaa !42
  %10 = getelementptr i8, ptr %9, i64 -24
  %11 = load i64, ptr %10, align 8
  %12 = getelementptr inbounds i8, ptr %8, i64 %11
  call void @_ZNSt9basic_iosIcSt11char_traitsIcEE8setstateESt12_Ios_Iostate(ptr noundef nonnull align 8 dereferenceable(264) %12, i32 noundef 1)
  br label %19

13:                                               ; preds = %2
  %14 = load ptr, ptr %3, align 8, !tbaa !40
  %15 = load ptr, ptr %4, align 8, !tbaa !3
  %16 = load ptr, ptr %4, align 8, !tbaa !3
  %17 = call noundef i64 @_ZNSt11char_traitsIcE6lengthEPKc(ptr noundef %16)
  %18 = call noundef nonnull align 8 dereferenceable(8) ptr @_ZSt16__ostream_insertIcSt11char_traitsIcEERSt13basic_ostreamIT_T0_ES6_PKS3_l(ptr noundef nonnull align 8 dereferenceable(8) %14, ptr noundef %15, i64 noundef %17)
  br label %19

19:                                               ; preds = %13, %7
  %20 = load ptr, ptr %3, align 8, !tbaa !40
  ret ptr %20
}

; Function Attrs: mustprogress nounwind uwtable
define linkonce_odr hidden noundef nonnull align 8 dereferenceable(24) ptr @_ZN2cv3dnn11GLogWrapper6streamEv(ptr noundef nonnull align 8 dereferenceable(432) %0) #6 comdat align 2 {
  %2 = alloca ptr, align 8
  store ptr %0, ptr %2, align 8, !tbaa !12
  %3 = load ptr, ptr %2, align 8
  %4 = getelementptr inbounds nuw %"class.cv::dnn::GLogWrapper", ptr %3, i32 0, i32 7
  ret ptr %4
}

; Function Attrs: mustprogress nounwind uwtable
define linkonce_odr hidden noundef zeroext i1 @_ZN2cv3dnn11GLogWrapper4exitEv(ptr noundef nonnull align 8 dereferenceable(432) %0) #6 comdat align 2 {
  %2 = alloca ptr, align 8
  store ptr %0, ptr %2, align 8, !tbaa !12
  %3 = load ptr, ptr %2, align 8
  %4 = getelementptr inbounds nuw %"class.cv::dnn::GLogWrapper", ptr %3, i32 0, i32 6
  %5 = load i8, ptr %4, align 1, !tbaa !39, !range !36, !noundef !37
  %6 = trunc i8 %5 to i1
  ret i1 %6
}

; Function Attrs: mustprogress uwtable
define linkonce_odr hidden void @_ZN2cv3dnn11GLogWrapperC2EPKcS3_iS3_S3_b(ptr noundef nonnull align 8 dereferenceable(432) %0, ptr noundef %1, ptr noundef %2, i32 noundef %3, ptr noundef %4, ptr noundef %5, i1 noundef zeroext %6) unnamed_addr #4 comdat align 2 {
  %8 = alloca ptr, align 8
  %9 = alloca ptr, align 8
  %10 = alloca ptr, align 8
  %11 = alloca i32, align 4
  %12 = alloca ptr, align 8
  %13 = alloca ptr, align 8
  %14 = alloca i8, align 1
  store ptr %0, ptr %8, align 8, !tbaa !12
  store ptr %1, ptr %9, align 8, !tbaa !3
  store ptr %2, ptr %10, align 8, !tbaa !3
  store i32 %3, ptr %11, align 4, !tbaa !14
  store ptr %4, ptr %12, align 8, !tbaa !3
  store ptr %5, ptr %13, align 8, !tbaa !3
  %15 = zext i1 %6 to i8
  store i8 %15, ptr %14, align 1, !tbaa !16
  %16 = load ptr, ptr %8, align 8
  %17 = getelementptr inbounds nuw %"class.cv::dnn::GLogWrapper", ptr %16, i32 0, i32 0
  %18 = load ptr, ptr %9, align 8, !tbaa !3
  store ptr %18, ptr %17, align 8, !tbaa !18
  %19 = getelementptr inbounds nuw %"class.cv::dnn::GLogWrapper", ptr %16, i32 0, i32 1
  %20 = load ptr, ptr %10, align 8, !tbaa !3
  store ptr %20, ptr %19, align 8, !tbaa !32
  %21 = getelementptr inbounds nuw %"class.cv::dnn::GLogWrapper", ptr %16, i32 0, i32 2
  %22 = load ptr, ptr %12, align 8, !tbaa !3
  store ptr %22, ptr %21, align 8, !tbaa !33
  %23 = getelementptr inbounds nuw %"class.cv::dnn::GLogWrapper", ptr %16, i32 0, i32 3
  %24 = load ptr, ptr %13, align 8, !tbaa !3
  store ptr %24, ptr %23, align 8, !tbaa !34
  %25 = getelementptr inbounds nuw %"class.cv::dnn::GLogWrapper", ptr %16, i32 0, i32 4
  %26 = load i32, ptr %11, align 4, !tbaa !14
  store i32 %26, ptr %25, align 8, !tbaa !35
  %27 = getelementptr inbounds nuw %"class.cv::dnn::GLogWrapper", ptr %16, i32 0, i32 5
  %28 = load i8, ptr %14, align 1, !tbaa !16, !range !36, !noundef !37
  %29 = trunc i8 %28 to i1
  %30 = zext i1 %29 to i8
  store i8 %30, ptr %27, align 4, !tbaa !38
  %31 = getelementptr inbounds nuw %"class.cv::dnn::GLogWrapper", ptr %16, i32 0, i32 6
  store i8 1, ptr %31, align 1, !tbaa !39
  %32 = getelementptr inbounds nuw %"class.cv::dnn::GLogWrapper", ptr %16, i32 0, i32 7
  call void @_ZNSt7__cxx1118basic_stringstreamIcSt11char_traitsIcESaIcEEC1Ev(ptr noundef nonnull align 8 dereferenceable(128) %32)
  ret void
}

; Function Attrs: mustprogress uwtable
define hidden void @_ZN2cv3dnn32ReadTFNetParamsFromTextFileOrDieEPKcPN17opencv_tensorflow8GraphDefE(ptr noundef %0, ptr noundef %1) #4 personality ptr @__gxx_personality_v0 {
  %3 = alloca ptr, align 8
  %4 = alloca ptr, align 8
  %5 = alloca %"class.cv::dnn::GLogWrapper", align 8
  %6 = alloca ptr, align 8
  %7 = alloca i32, align 4
  store ptr %0, ptr %3, align 8, !tbaa !3
  store ptr %1, ptr %4, align 8, !tbaa !8
  call void @llvm.lifetime.start.p0(i64 432, ptr %5) #3
  %8 = load ptr, ptr %3, align 8, !tbaa !3
  %9 = load ptr, ptr %4, align 8, !tbaa !8
  %10 = call noundef zeroext i1 @_ZN2cv3dnn21ReadProtoFromTextFileEPKcPN6google8protobuf7MessageE(ptr noundef %8, ptr noundef %9)
  call void @_ZN2cv3dnn11GLogWrapperC2EPKcS3_iS3_S3_b(ptr noundef nonnull align 8 dereferenceable(432) %5, ptr noundef @.str, ptr noundef @__func__._ZN2cv3dnn32ReadTFNetParamsFromTextFileOrDieEPKcPN17opencv_tensorflow8GraphDefE, i32 noundef 54, ptr noundef @.str.1, ptr noundef @.str.6, i1 noundef zeroext %10)
  br label %11

11:                                               ; preds = %29, %2
  %12 = invoke noundef zeroext i1 @_ZN2cv3dnn11GLogWrapper4exitEv(ptr noundef nonnull align 8 dereferenceable(432) %5)
          to label %13 unwind label %15

13:                                               ; preds = %11
  br i1 %12, label %19, label %14

14:                                               ; preds = %13
  call void @_ZN2cv3dnn11GLogWrapperD2Ev(ptr noundef nonnull align 8 dereferenceable(432) %5) #3
  call void @llvm.lifetime.end.p0(i64 432, ptr %5) #3
  br label %30

15:                                               ; preds = %28, %24, %21, %19, %11
  %16 = landingpad { ptr, i32 }
          cleanup
  %17 = extractvalue { ptr, i32 } %16, 0
  store ptr %17, ptr %6, align 8
  %18 = extractvalue { ptr, i32 } %16, 1
  store i32 %18, ptr %7, align 4
  call void @_ZN2cv3dnn11GLogWrapperD2Ev(ptr noundef nonnull align 8 dereferenceable(432) %5) #3
  call void @llvm.lifetime.end.p0(i64 432, ptr %5) #3
  br label %31

19:                                               ; preds = %13
  %20 = invoke noundef nonnull align 8 dereferenceable(24) ptr @_ZN2cv3dnn11GLogWrapper6streamEv(ptr noundef nonnull align 8 dereferenceable(432) %5)
          to label %21 unwind label %15

21:                                               ; preds = %19
  %22 = getelementptr inbounds i8, ptr %20, i64 16
  %23 = invoke noundef nonnull align 8 dereferenceable(8) ptr @_ZStlsISt11char_traitsIcEERSt13basic_ostreamIcT_ES5_PKc(ptr noundef nonnull align 8 dereferenceable(8) %22, ptr noundef @.str.3)
          to label %24 unwind label %15

24:                                               ; preds = %21
  %25 = load ptr, ptr %3, align 8, !tbaa !3
  %26 = invoke noundef nonnull align 8 dereferenceable(8) ptr @_ZStlsISt11char_traitsIcEERSt13basic_ostreamIcT_ES5_PKc(ptr noundef nonnull align 8 dereferenceable(8) %23, ptr noundef %25)
          to label %27 unwind label %15

27:                                               ; preds = %24
  br label %28

28:                                               ; preds = %27
  invoke void @_ZN2cv3dnn11GLogWrapper5checkEv(ptr noundef nonnull align 8 dereferenceable(432) %5)
          to label %29 unwind label %15

29:                                               ; preds = %28
  br label %11, !llvm.loop !46

30:                                               ; preds = %14
  ret void

31:                                               ; preds = %15
  %32 = load ptr, ptr %6, align 8
  %33 = load i32, ptr %7, align 4
  %34 = insertvalue { ptr, i32 } poison, ptr %32, 0
  %35 = insertvalue { ptr, i32 } %34, i32 %33, 1
  resume { ptr, i32 } %35
}