; Function Attrs: mustprogress uwtable
define hidden void @_ZN2cv3dnn32ReadTFNetParamsFromTextFileOrDieEPKcPN17opencv_tensorflow8GraphDefE(ptr noundef %0, ptr noundef %1) local_unnamed_addr #3 personality ptr @__gxx_personality_v0 {
  %3 = alloca %"class.cv::dnn::GLogWrapper", align 8
  call void @llvm.lifetime.start.p0(i64 432, ptr nonnull %3) #13
  %4 = tail call noundef zeroext i1 @_ZN2cv3dnn21ReadProtoFromTextFileEPKcPN6google8protobuf7MessageE(ptr noundef %0, ptr noundef %1)
  %5 = zext i1 %4 to i8
  store ptr @.str, ptr %3, align 8, !tbaa !3
  %6 = getelementptr inbounds nuw i8, ptr %3, i64 8
  store ptr @__func__._ZN2cv3dnn32ReadTFNetParamsFromTextFileOrDieEPKcPN17opencv_tensorflow8GraphDefE, ptr %6, align 8, !tbaa !23
  %7 = getelementptr inbounds nuw i8, ptr %3, i64 16
  store ptr @.str.1, ptr %7, align 8, !tbaa !24
  %8 = getelementptr inbounds nuw i8, ptr %3, i64 24
  store ptr @.str.6, ptr %8, align 8, !tbaa !25
  %9 = getelementptr inbounds nuw i8, ptr %3, i64 32
  store i32 54, ptr %9, align 8, !tbaa !26
  %10 = getelementptr inbounds nuw i8, ptr %3, i64 36
  store i8 %5, ptr %10, align 4, !tbaa !27
  %11 = getelementptr inbounds nuw i8, ptr %3, i64 37
  store i8 1, ptr %11, align 1, !tbaa !28
  %12 = getelementptr inbounds nuw i8, ptr %3, i64 40
  call void @_ZNSt7__cxx1118basic_stringstreamIcSt11char_traitsIcESaIcEEC1Ev(ptr noundef nonnull align 8 dereferenceable(128) %12)
  %13 = getelementptr inbounds nuw i8, ptr %3, i64 56
  %.not.i = icmp eq ptr %0, null
  br i1 %.not.i, label %.split.us, label %.split

.split.us:                                        ; preds = %2, %_ZStlsISt11char_traitsIcEERSt13basic_ostreamIcT_ES5_PKc.exit5.us
  %14 = load i8, ptr %11, align 1, !tbaa !28, !range !29, !noundef !30
  %15 = trunc nuw i8 %14 to i1
  br i1 %15, label %16, label %.split7.us

16:                                               ; preds = %.split.us
  %17 = invoke noundef nonnull align 8 dereferenceable(8) ptr @_ZSt16__ostream_insertIcSt11char_traitsIcEERSt13basic_ostreamIT_T0_ES6_PKS3_l(ptr noundef nonnull align 8 dereferenceable(8) %13, ptr noundef nonnull @.str.3, i64 noundef 31)
          to label %_ZStlsISt11char_traitsIcEERSt13basic_ostreamIcT_ES5_PKc.exit.us unwind label %.split9.us

_ZStlsISt11char_traitsIcEERSt13basic_ostreamIcT_ES5_PKc.exit.us: ; preds = %16
  %18 = load ptr, ptr %13, align 8, !tbaa !31
  %19 = getelementptr i8, ptr %18, i64 -24
  %20 = load i64, ptr %19, align 8
  %21 = getelementptr inbounds i8, ptr %13, i64 %20
  %22 = getelementptr inbounds nuw i8, ptr %21, i64 32
  %23 = load i32, ptr %22, align 8, !tbaa !33
  %24 = or i32 %23, 1
  invoke void @_ZNSt9basic_iosIcSt11char_traitsIcEE5clearESt12_Ios_Iostate(ptr noundef nonnull align 8 dereferenceable(264) %21, i32 noundef %24)
          to label %_ZStlsISt11char_traitsIcEERSt13basic_ostreamIcT_ES5_PKc.exit5.us unwind label %.split9.us

_ZStlsISt11char_traitsIcEERSt13basic_ostreamIcT_ES5_PKc.exit5.us: ; preds = %_ZStlsISt11char_traitsIcEERSt13basic_ostreamIcT_ES5_PKc.exit.us
  invoke void @_ZN2cv3dnn11GLogWrapper5checkEv(ptr noundef nonnull align 8 dereferenceable(432) %3)
          to label %.split.us unwind label %.split9.us, !llvm.loop !46

.split9.us:                                       ; preds = %_ZStlsISt11char_traitsIcEERSt13basic_ostreamIcT_ES5_PKc.exit5.us, %_ZStlsISt11char_traitsIcEERSt13basic_ostreamIcT_ES5_PKc.exit.us, %16
  %25 = landingpad { ptr, i32 }
          cleanup
  br label %51

.split:                                           ; preds = %2, %_ZStlsISt11char_traitsIcEERSt13basic_ostreamIcT_ES5_PKc.exit5
  %26 = load i8, ptr %11, align 1, !tbaa !28, !range !29, !noundef !30
  %27 = trunc nuw i8 %26 to i1
  br i1 %27, label %52, label %.split7.us

.split7.us:                                       ; preds = %.split, %.split.us
  %28 = load ptr, ptr @_ZTTNSt7__cxx1118basic_stringstreamIcSt11char_traitsIcESaIcEEE, align 8
  store ptr %28, ptr %12, align 8, !tbaa !31
  %29 = load ptr, ptr getelementptr inbounds nuw (i8, ptr @_ZTTNSt7__cxx1118basic_stringstreamIcSt11char_traitsIcESaIcEEE, i64 64), align 8
  %30 = getelementptr i8, ptr %28, i64 -24
  %31 = load i64, ptr %30, align 8
  %32 = getelementptr inbounds i8, ptr %12, i64 %31
  store ptr %29, ptr %32, align 8, !tbaa !31
  %33 = load ptr, ptr getelementptr inbounds nuw (i8, ptr @_ZTTNSt7__cxx1118basic_stringstreamIcSt11char_traitsIcESaIcEEE, i64 72), align 8
  store ptr %33, ptr %13, align 8, !tbaa !31
  %34 = getelementptr inbounds nuw i8, ptr %3, i64 64
  store ptr getelementptr inbounds nuw inrange(-16, 112) (i8, ptr @_ZTVNSt7__cxx1115basic_stringbufIcSt11char_traitsIcESaIcEEE, i64 16), ptr %34, align 8, !tbaa !31
  %35 = getelementptr inbounds nuw i8, ptr %3, i64 136
  %36 = load ptr, ptr %35, align 8, !tbaa !42
  %37 = getelementptr inbounds nuw i8, ptr %3, i64 152
  %38 = icmp eq ptr %36, %37
  br i1 %38, label %_ZNKSt7__cxx1112basic_stringIcSt11char_traitsIcESaIcEE11_M_is_localEv.exit.thread.i.i.i.i.i.i, label %_ZNKSt7__cxx1112basic_stringIcSt11char_traitsIcESaIcEE11_M_is_localEv.exit.i.i.i.i.i.i

_ZNKSt7__cxx1112basic_stringIcSt11char_traitsIcESaIcEE11_M_is_localEv.exit.thread.i.i.i.i.i.i: ; preds = %.split7.us
  %39 = getelementptr inbounds nuw i8, ptr %3, i64 144
  %40 = load i64, ptr %39, align 8, !tbaa !43
  %41 = icmp ult i64 %40, 16
  call void @llvm.assume(i1 %41)
  br label %_ZN2cv3dnn11GLogWrapperD2Ev.exit

_ZNKSt7__cxx1112basic_stringIcSt11char_traitsIcESaIcEE11_M_is_localEv.exit.i.i.i.i.i.i: ; preds = %.split7.us
  call void @_ZdlPv(ptr noundef %36) #14
  br label %_ZN2cv3dnn11GLogWrapperD2Ev.exit

_ZN2cv3dnn11GLogWrapperD2Ev.exit:                 ; preds = %_ZNKSt7__cxx1112basic_stringIcSt11char_traitsIcESaIcEE11_M_is_localEv.exit.thread.i.i.i.i.i.i, %_ZNKSt7__cxx1112basic_stringIcSt11char_traitsIcESaIcEE11_M_is_localEv.exit.i.i.i.i.i.i
  store ptr getelementptr inbounds nuw inrange(-16, 112) (i8, ptr @_ZTVSt15basic_streambufIcSt11char_traitsIcEE, i64 16), ptr %34, align 8, !tbaa !31
  %42 = getelementptr inbounds nuw i8, ptr %3, i64 120
  call void @_ZNSt6localeD1Ev(ptr noundef nonnull align 8 dereferenceable(8) %42) #13
  %43 = load ptr, ptr getelementptr inbounds nuw (i8, ptr @_ZTTNSt7__cxx1118basic_stringstreamIcSt11char_traitsIcESaIcEEE, i64 16), align 8
  store ptr %43, ptr %12, align 8, !tbaa !31
  %44 = load ptr, ptr getelementptr inbounds nuw (i8, ptr @_ZTTNSt7__cxx1118basic_stringstreamIcSt11char_traitsIcESaIcEEE, i64 24), align 8
  %45 = getelementptr i8, ptr %43, i64 -24
  %46 = load i64, ptr %45, align 8
  %47 = getelementptr inbounds i8, ptr %12, i64 %46
  store ptr %44, ptr %47, align 8, !tbaa !31
  %48 = getelementptr inbounds nuw i8, ptr %3, i64 48
  store i64 0, ptr %48, align 8, !tbaa !44
  %49 = getelementptr inbounds nuw i8, ptr %3, i64 168
  call void @_ZNSt8ios_baseD2Ev(ptr noundef nonnull align 8 dereferenceable(264) %49) #13
  call void @llvm.lifetime.end.p0(i64 432, ptr nonnull %3) #13
  ret void

.split9:                                          ; preds = %_ZStlsISt11char_traitsIcEERSt13basic_ostreamIcT_ES5_PKc.exit, %52, %_ZStlsISt11char_traitsIcEERSt13basic_ostreamIcT_ES5_PKc.exit5
  %50 = landingpad { ptr, i32 }
          cleanup
  br label %51

51:                                               ; preds = %.split9.us, %.split9
  %.us-phi = phi { ptr, i32 } [ %50, %.split9 ], [ %25, %.split9.us ]
  call void @_ZN2cv3dnn11GLogWrapperD2Ev(ptr noundef nonnull align 8 dereferenceable(432) %3) #13
  call void @llvm.lifetime.end.p0(i64 432, ptr nonnull %3) #13
  resume { ptr, i32 } %.us-phi

52:                                               ; preds = %.split
  %53 = invoke noundef nonnull align 8 dereferenceable(8) ptr @_ZSt16__ostream_insertIcSt11char_traitsIcEERSt13basic_ostreamIT_T0_ES6_PKS3_l(ptr noundef nonnull align 8 dereferenceable(8) %13, ptr noundef nonnull @.str.3, i64 noundef 31)
          to label %_ZStlsISt11char_traitsIcEERSt13basic_ostreamIcT_ES5_PKc.exit unwind label %.split9

_ZStlsISt11char_traitsIcEERSt13basic_ostreamIcT_ES5_PKc.exit: ; preds = %52
  %54 = call noundef i64 @strlen(ptr noundef nonnull dereferenceable(1) %0) #13
  %55 = invoke noundef nonnull align 8 dereferenceable(8) ptr @_ZSt16__ostream_insertIcSt11char_traitsIcEERSt13basic_ostreamIT_T0_ES6_PKS3_l(ptr noundef nonnull align 8 dereferenceable(8) %13, ptr noundef nonnull %0, i64 noundef %54)
          to label %_ZStlsISt11char_traitsIcEERSt13basic_ostreamIcT_ES5_PKc.exit5 unwind label %.split9

_ZStlsISt11char_traitsIcEERSt13basic_ostreamIcT_ES5_PKc.exit5: ; preds = %_ZStlsISt11char_traitsIcEERSt13basic_ostreamIcT_ES5_PKc.exit
  invoke void @_ZN2cv3dnn11GLogWrapper5checkEv(ptr noundef nonnull align 8 dereferenceable(432) %3)
          to label %.split unwind label %.split9, !llvm.loop !46
}